; Function Attrs: mustprogress nounwind uwtable
define dso_local void @_ZN11cmQtAutoGen9RccListerC2ENSt7__cxx1112basic_stringIcSt11char_traitsIcESaIcEEESt6vectorIS6_SaIS6_EE(ptr noundef nonnull align 8 dereferenceable(56) %0, ptr noundef nonnull %1, ptr noundef captures(none) %2) unnamed_addr #5 align 2 {
  tail call void @_ZNSt7__cxx1112basic_stringIcSt11char_traitsIcESaIcEEC1EOS4_(ptr noundef nonnull align 8 dereferenceable(32) %0, ptr noundef nonnull align 8 dereferenceable(32) %1) #19
  %4 = getelementptr inbounds nuw i8, ptr %0, i64 32
  %5 = load ptr, ptr %2, align 8
  store ptr %5, ptr %4, align 8
  %6 = getelementptr inbounds nuw i8, ptr %0, i64 40
  %7 = getelementptr inbounds nuw i8, ptr %2, i64 8
  %8 = load ptr, ptr %7, align 8
  store ptr %8, ptr %6, align 8
  %9 = getelementptr inbounds nuw i8, ptr %0, i64 48
  %10 = getelementptr inbounds nuw i8, ptr %2, i64 16
  %11 = load ptr, ptr %10, align 8
  store ptr %11, ptr %9, align 8
  tail call void @llvm.memset.p0.i64(ptr noundef nonnull align 8 dereferenceable(24) %2, i8 0, i64 24, i1 false)
  ret void
}